; Function Attrs: nounwind uwtable
define internal range(i32 0, 2) i32 @Cba_CommandClp(ptr noundef captures(none) %0, i32 noundef %1, ptr noundef %2) #0 {
  %4 = getelementptr i8, ptr %0, i64 536
  %.val = load ptr, ptr %4, align 8, !tbaa !63
  tail call void (...) @Extra_UtilGetoptReset() #19
  br label %5

5:                                                ; preds = %7, %3
  %.0 = phi i32 [ 0, %3 ], [ %8, %7 ]
  %6 = tail call i32 @Extra_UtilGetopt(i32 noundef %1, ptr noundef %2, ptr noundef nonnull @.str.83) #19
  switch i32 %6, label %15 [
    i32 -1, label %9
    i32 118, label %7
  ]

7:                                                ; preds = %5
  %8 = xor i32 %.0, 1
  br label %5, !llvm.loop !84

9:                                                ; preds = %5
  %10 = icmp eq ptr %.val, null
  br i1 %10, label %11, label %12

11:                                               ; preds = %9
  tail call void (i32, ptr, ...) @Abc_Print(i32 noundef 1, ptr noundef nonnull @.str.77)
  br label %17

12:                                               ; preds = %9
  %13 = tail call ptr @Cba_ManCollapse(ptr noundef nonnull %.val) #19
  %.val.i = load ptr, ptr %4, align 8, !tbaa !63
  %.not.i.i = icmp eq ptr %.val.i, null
  br i1 %.not.i.i, label %Cba_AbcUpdateMan.exit, label %14

14:                                               ; preds = %12
  tail call fastcc void @Cba_ManFree(ptr noundef nonnull %.val.i)
  br label %Cba_AbcUpdateMan.exit

Cba_AbcUpdateMan.exit:                            ; preds = %12, %14
  store ptr %13, ptr %4, align 8, !tbaa !63
  br label %17

15:                                               ; preds = %5
  tail call void (i32, ptr, ...) @Abc_Print(i32 noundef -2, ptr noundef nonnull @.str.84)
  tail call void (i32, ptr, ...) @Abc_Print(i32 noundef -2, ptr noundef nonnull @.str.85)
  %.not13 = icmp eq i32 %.0, 0
  %16 = select i1 %.not13, ptr @.str.28, ptr @.str.27
  tail call void (i32, ptr, ...) @Abc_Print(i32 noundef -2, ptr noundef nonnull @.str.30, ptr noundef nonnull %16)
  tail call void (i32, ptr, ...) @Abc_Print(i32 noundef -2, ptr noundef nonnull @.str.31)
  br label %17

17:                                               ; preds = %15, %Cba_AbcUpdateMan.exit, %11
  %.010 = phi i32 [ 1, %15 ], [ 0, %11 ], [ 0, %Cba_AbcUpdateMan.exit ]
  ret i32 %.010
}